target datalayout = "e-m:e-p270:32:32-p271:32:32-p272:64:64-i64:64-i128:128-f80:128-n8:16:32:64-S128"
target triple = "x86_64-pc-linux-gnu"

%"struct.duckdb_zstd::rawSeqStore_t" = type { ptr, i64, i64, i64, i64 }
%"struct.duckdb_zstd::ZSTD_optLdm_t" = type { %"struct.duckdb_zstd::rawSeqStore_t", i32, i32, i32 }
%"struct.duckdb_zstd::rawSeq" = type { i32, i32, i32 }

; Function Attrs: mustprogress nounwind uwtable
define internal void @_ZN11duckdb_zstdL32ZSTD_optLdm_skipRawSeqStoreBytesEPNS_13rawSeqStore_tEm(ptr noundef %0, i64 noundef %1) #5 {
  %3 = alloca ptr, align 8
  %4 = alloca i64, align 8
  %5 = alloca i32, align 4
  %6 = alloca %"struct.duckdb_zstd::rawSeq", align 4
  %7 = alloca i32, align 4
  store ptr %0, ptr %3, align 8, !tbaa !28
  store i64 %1, ptr %4, align 8, !tbaa !30
  call void @llvm.lifetime.start.p0(i64 4, ptr %5) #13
  %8 = load ptr, ptr %3, align 8, !tbaa !28
  %9 = getelementptr inbounds nuw %"struct.duckdb_zstd::rawSeqStore_t", ptr %8, i32 0, i32 2
  %10 = load i64, ptr %9, align 8, !tbaa !135
  %11 = load i64, ptr %4, align 8, !tbaa !30
  %12 = add i64 %10, %11
  %13 = trunc i64 %12 to i32
  store i32 %13, ptr %5, align 4, !tbaa !21
  br label %14

14:                                               ; preds = %62, %2
  %15 = load i32, ptr %5, align 4, !tbaa !21
  %16 = icmp ne i32 %15, 0
  br i1 %16, label %17, label %25

17:                                               ; preds = %14
  %18 = load ptr, ptr %3, align 8, !tbaa !28
  %19 = getelementptr inbounds nuw %"struct.duckdb_zstd::rawSeqStore_t", ptr %18, i32 0, i32 1
  %20 = load i64, ptr %19, align 8, !tbaa !136
  %21 = load ptr, ptr %3, align 8, !tbaa !28
  %22 = getelementptr inbounds nuw %"struct.duckdb_zstd::rawSeqStore_t", ptr %21, i32 0, i32 3
  %23 = load i64, ptr %22, align 8, !tbaa !137
  %24 = icmp ult i64 %20, %23
  br label %25

25:                                               ; preds = %17, %14
  %26 = phi i1 [ false, %14 ], [ %24, %17 ]
  br i1 %26, label %27, label %63

27:                                               ; preds = %25
  call void @llvm.lifetime.start.p0(i64 12, ptr %6) #13
  %28 = load ptr, ptr %3, align 8, !tbaa !28
  %29 = getelementptr inbounds nuw %"struct.duckdb_zstd::rawSeqStore_t", ptr %28, i32 0, i32 0
  %30 = load ptr, ptr %29, align 8, !tbaa !138
  %31 = load ptr, ptr %3, align 8, !tbaa !28
  %32 = getelementptr inbounds nuw %"struct.duckdb_zstd::rawSeqStore_t", ptr %31, i32 0, i32 1
  %33 = load i64, ptr %32, align 8, !tbaa !136
  %34 = getelementptr inbounds nuw %"struct.duckdb_zstd::rawSeq", ptr %30, i64 %33
  call void @llvm.memcpy.p0.p0.i64(ptr align 4 %6, ptr align 4 %34, i64 12, i1 false), !tbaa.struct !85
  %35 = load i32, ptr %5, align 4, !tbaa !21
  %36 = getelementptr inbounds nuw %"struct.duckdb_zstd::rawSeq", ptr %6, i32 0, i32 1
  %37 = load i32, ptr %36, align 4, !tbaa !87
  %38 = getelementptr inbounds nuw %"struct.duckdb_zstd::rawSeq", ptr %6, i32 0, i32 2
  %39 = load i32, ptr %38, align 4, !tbaa !89
  %40 = add i32 %37, %39
  %41 = icmp uge i32 %35, %40
  br i1 %41, label %42, label %54

42:                                               ; preds = %27
  %43 = getelementptr inbounds nuw %"struct.duckdb_zstd::rawSeq", ptr %6, i32 0, i32 1
  %44 = load i32, ptr %43, align 4, !tbaa !87
  %45 = getelementptr inbounds nuw %"struct.duckdb_zstd::rawSeq", ptr %6, i32 0, i32 2
  %46 = load i32, ptr %45, align 4, !tbaa !89
  %47 = add i32 %44, %46
  %48 = load i32, ptr %5, align 4, !tbaa !21
  %49 = sub i32 %48, %47
  store i32 %49, ptr %5, align 4, !tbaa !21
  %50 = load ptr, ptr %3, align 8, !tbaa !28
  %51 = getelementptr inbounds nuw %"struct.duckdb_zstd::rawSeqStore_t", ptr %50, i32 0, i32 1
  %52 = load i64, ptr %51, align 8, !tbaa !136
  %53 = add i64 %52, 1
  store i64 %53, ptr %51, align 8, !tbaa !136
  br label %59

54:                                               ; preds = %27
  %55 = load i32, ptr %5, align 4, !tbaa !21
  %56 = zext i32 %55 to i64
  %57 = load ptr, ptr %3, align 8, !tbaa !28
  %58 = getelementptr inbounds nuw %"struct.duckdb_zstd::rawSeqStore_t", ptr %57, i32 0, i32 2
  store i64 %56, ptr %58, align 8, !tbaa !135
  store i32 3, ptr %7, align 4
  br label %60

59:                                               ; preds = %42
  store i32 0, ptr %7, align 4
  br label %60

60:                                               ; preds = %59, %54
  call void @llvm.lifetime.end.p0(i64 12, ptr %6) #13
  %61 = load i32, ptr %7, align 4
  switch i32 %61, label %78 [
    i32 0, label %62
    i32 3, label %63
  ]

62:                                               ; preds = %60
  br label %14, !llvm.loop !139

63:                                               ; preds = %60, %25
  %64 = load i32, ptr %5, align 4, !tbaa !21
  %65 = icmp eq i32 %64, 0
  br i1 %65, label %74, label %66

66:                                               ; preds = %63
  %67 = load ptr, ptr %3, align 8, !tbaa !28
  %68 = getelementptr inbounds nuw %"struct.duckdb_zstd::rawSeqStore_t", ptr %67, i32 0, i32 1
  %69 = load i64, ptr %68, align 8, !tbaa !136
  %70 = load ptr, ptr %3, align 8, !tbaa !28
  %71 = getelementptr inbounds nuw %"struct.duckdb_zstd::rawSeqStore_t", ptr %70, i32 0, i32 3
  %72 = load i64, ptr %71, align 8, !tbaa !137
  %73 = icmp eq i64 %69, %72
  br i1 %73, label %74, label %77

74:                                               ; preds = %66, %63
  %75 = load ptr, ptr %3, align 8, !tbaa !28
  %76 = getelementptr inbounds nuw %"struct.duckdb_zstd::rawSeqStore_t", ptr %75, i32 0, i32 2
  store i64 0, ptr %76, align 8, !tbaa !135
  br label %77

77:                                               ; preds = %74, %66
  call void @llvm.lifetime.end.p0(i64 4, ptr %5) #13
  ret void

78:                                               ; preds = %60
  unreachable
}

; Function Attrs: mustprogress uwtable
define internal void @_ZN11duckdb_zstdL38ZSTD_opt_getNextMatchAndUpdateSeqStoreEPNS_13ZSTD_optLdm_tEjj(ptr noundef %0, i32 noundef %1, i32 noundef %2) #0 {
  %4 = alloca ptr, align 8
  %5 = alloca i32, align 4
  %6 = alloca i32, align 4
  %7 = alloca %"struct.duckdb_zstd::rawSeq", align 4
  %8 = alloca i32, align 4
  %9 = alloca i32, align 4
  %10 = alloca i32, align 4
  %11 = alloca i32, align 4
  store ptr %0, ptr %4, align 8, !tbaa !28
  store i32 %1, ptr %5, align 4, !tbaa !21
  store i32 %2, ptr %6, align 4, !tbaa !21
  call void @llvm.lifetime.start.p0(i64 12, ptr %7) #13
  call void @llvm.lifetime.start.p0(i64 4, ptr %8) #13
  call void @llvm.lifetime.start.p0(i64 4, ptr %9) #13
  call void @llvm.lifetime.start.p0(i64 4, ptr %10) #13
  %12 = load ptr, ptr %4, align 8, !tbaa !28
  %13 = getelementptr inbounds nuw %"struct.duckdb_zstd::ZSTD_optLdm_t", ptr %12, i32 0, i32 0
  %14 = getelementptr inbounds nuw %"struct.duckdb_zstd::rawSeqStore_t", ptr %13, i32 0, i32 3
  %15 = load i64, ptr %14, align 8, !tbaa !82
  %16 = icmp eq i64 %15, 0
  br i1 %16, label %27, label %17

17:                                               ; preds = %3
  %18 = load ptr, ptr %4, align 8, !tbaa !28
  %19 = getelementptr inbounds nuw %"struct.duckdb_zstd::ZSTD_optLdm_t", ptr %18, i32 0, i32 0
  %20 = getelementptr inbounds nuw %"struct.duckdb_zstd::rawSeqStore_t", ptr %19, i32 0, i32 1
  %21 = load i64, ptr %20, align 8, !tbaa !83
  %22 = load ptr, ptr %4, align 8, !tbaa !28
  %23 = getelementptr inbounds nuw %"struct.duckdb_zstd::ZSTD_optLdm_t", ptr %22, i32 0, i32 0
  %24 = getelementptr inbounds nuw %"struct.duckdb_zstd::rawSeqStore_t", ptr %23, i32 0, i32 3
  %25 = load i64, ptr %24, align 8, !tbaa !82
  %26 = icmp uge i64 %21, %25
  br i1 %26, label %27, label %32

27:                                               ; preds = %17, %3
  %28 = load ptr, ptr %4, align 8, !tbaa !28
  %29 = getelementptr inbounds nuw %"struct.duckdb_zstd::ZSTD_optLdm_t", ptr %28, i32 0, i32 1
  store i32 -1, ptr %29, align 8, !tbaa !61
  %30 = load ptr, ptr %4, align 8, !tbaa !28
  %31 = getelementptr inbounds nuw %"struct.duckdb_zstd::ZSTD_optLdm_t", ptr %30, i32 0, i32 2
  store i32 -1, ptr %31, align 4, !tbaa !62
  store i32 1, ptr %11, align 4
  br label %136

32:                                               ; preds = %17
  %33 = load ptr, ptr %4, align 8, !tbaa !28
  %34 = getelementptr inbounds nuw %"struct.duckdb_zstd::ZSTD_optLdm_t", ptr %33, i32 0, i32 0
  %35 = getelementptr inbounds nuw %"struct.duckdb_zstd::rawSeqStore_t", ptr %34, i32 0, i32 0
  %36 = load ptr, ptr %35, align 8, !tbaa !84
  %37 = load ptr, ptr %4, align 8, !tbaa !28
  %38 = getelementptr inbounds nuw %"struct.duckdb_zstd::ZSTD_optLdm_t", ptr %37, i32 0, i32 0
  %39 = getelementptr inbounds nuw %"struct.duckdb_zstd::rawSeqStore_t", ptr %38, i32 0, i32 1
  %40 = load i64, ptr %39, align 8, !tbaa !83
  %41 = getelementptr inbounds nuw %"struct.duckdb_zstd::rawSeq", ptr %36, i64 %40
  call void @llvm.memcpy.p0.p0.i64(ptr align 4 %7, ptr align 4 %41, i64 12, i1 false), !tbaa.struct !85
  %42 = load i32, ptr %5, align 4, !tbaa !21
  %43 = load i32, ptr %6, align 4, !tbaa !21
  %44 = add i32 %42, %43
  store i32 %44, ptr %8, align 4, !tbaa !21
  %45 = load ptr, ptr %4, align 8, !tbaa !28
  %46 = getelementptr inbounds nuw %"struct.duckdb_zstd::ZSTD_optLdm_t", ptr %45, i32 0, i32 0
  %47 = getelementptr inbounds nuw %"struct.duckdb_zstd::rawSeqStore_t", ptr %46, i32 0, i32 2
  %48 = load i64, ptr %47, align 8, !tbaa !86
  %49 = getelementptr inbounds nuw %"struct.duckdb_zstd::rawSeq", ptr %7, i32 0, i32 1
  %50 = load i32, ptr %49, align 4, !tbaa !87
  %51 = zext i32 %50 to i64
  %52 = icmp ult i64 %48, %51
  br i1 %52, label %53, label %62

53:                                               ; preds = %32
  %54 = getelementptr inbounds nuw %"struct.duckdb_zstd::rawSeq", ptr %7, i32 0, i32 1
  %55 = load i32, ptr %54, align 4, !tbaa !87
  %56 = load ptr, ptr %4, align 8, !tbaa !28
  %57 = getelementptr inbounds nuw %"struct.duckdb_zstd::ZSTD_optLdm_t", ptr %56, i32 0, i32 0
  %58 = getelementptr inbounds nuw %"struct.duckdb_zstd::rawSeqStore_t", ptr %57, i32 0, i32 2
  %59 = load i64, ptr %58, align 8, !tbaa !86
  %60 = trunc i64 %59 to i32
  %61 = sub i32 %55, %60
  br label %63

62:                                               ; preds = %32
  br label %63

63:                                               ; preds = %62, %53
  %64 = phi i32 [ %61, %53 ], [ 0, %62 ]
  store i32 %64, ptr %9, align 4, !tbaa !21
  %65 = load i32, ptr %9, align 4, !tbaa !21
  %66 = icmp eq i32 %65, 0
  br i1 %66, label %67, label %79

67:                                               ; preds = %63
  %68 = getelementptr inbounds nuw %"struct.duckdb_zstd::rawSeq", ptr %7, i32 0, i32 2
  %69 = load i32, ptr %68, align 4, !tbaa !89
  %70 = load ptr, ptr %4, align 8, !tbaa !28
  %71 = getelementptr inbounds nuw %"struct.duckdb_zstd::ZSTD_optLdm_t", ptr %70, i32 0, i32 0
  %72 = getelementptr inbounds nuw %"struct.duckdb_zstd::rawSeqStore_t", ptr %71, i32 0, i32 2
  %73 = load i64, ptr %72, align 8, !tbaa !86
  %74 = trunc i64 %73 to i32
  %75 = getelementptr inbounds nuw %"struct.duckdb_zstd::rawSeq", ptr %7, i32 0, i32 1
  %76 = load i32, ptr %75, align 4, !tbaa !87
  %77 = sub i32 %74, %76
  %78 = sub i32 %69, %77
  br label %82

79:                                               ; preds = %63
  %80 = getelementptr inbounds nuw %"struct.duckdb_zstd::rawSeq", ptr %7, i32 0, i32 2
  %81 = load i32, ptr %80, align 4, !tbaa !89
  br label %82

82:                                               ; preds = %79, %67
  %83 = phi i32 [ %78, %67 ], [ %81, %79 ]
  store i32 %83, ptr %10, align 4, !tbaa !21
  %84 = load i32, ptr %9, align 4, !tbaa !21
  %85 = load i32, ptr %6, align 4, !tbaa !21
  %86 = icmp uge i32 %84, %85
  br i1 %86, label %87, label %96

87:                                               ; preds = %82
  %88 = load ptr, ptr %4, align 8, !tbaa !28
  %89 = getelementptr inbounds nuw %"struct.duckdb_zstd::ZSTD_optLdm_t", ptr %88, i32 0, i32 1
  store i32 -1, ptr %89, align 8, !tbaa !61
  %90 = load ptr, ptr %4, align 8, !tbaa !28
  %91 = getelementptr inbounds nuw %"struct.duckdb_zstd::ZSTD_optLdm_t", ptr %90, i32 0, i32 2
  store i32 -1, ptr %91, align 4, !tbaa !62
  %92 = load ptr, ptr %4, align 8, !tbaa !28
  %93 = getelementptr inbounds nuw %"struct.duckdb_zstd::ZSTD_optLdm_t", ptr %92, i32 0, i32 0
  %94 = load i32, ptr %6, align 4, !tbaa !21
  %95 = zext i32 %94 to i64
  call void @_ZN11duckdb_zstdL32ZSTD_optLdm_skipRawSeqStoreBytesEPNS_13rawSeqStore_tEm(ptr noundef %93, i64 noundef %95)
  store i32 1, ptr %11, align 4
  br label %136

96:                                               ; preds = %82
  %97 = load i32, ptr %5, align 4, !tbaa !21
  %98 = load i32, ptr %9, align 4, !tbaa !21
  %99 = add i32 %97, %98
  %100 = load ptr, ptr %4, align 8, !tbaa !28
  %101 = getelementptr inbounds nuw %"struct.duckdb_zstd::ZSTD_optLdm_t", ptr %100, i32 0, i32 1
  store i32 %99, ptr %101, align 8, !tbaa !61
  %102 = load ptr, ptr %4, align 8, !tbaa !28
  %103 = getelementptr inbounds nuw %"struct.duckdb_zstd::ZSTD_optLdm_t", ptr %102, i32 0, i32 1
  %104 = load i32, ptr %103, align 8, !tbaa !61
  %105 = load i32, ptr %10, align 4, !tbaa !21
  %106 = add i32 %104, %105
  %107 = load ptr, ptr %4, align 8, !tbaa !28
  %108 = getelementptr inbounds nuw %"struct.duckdb_zstd::ZSTD_optLdm_t", ptr %107, i32 0, i32 2
  store i32 %106, ptr %108, align 4, !tbaa !62
  %109 = getelementptr inbounds nuw %"struct.duckdb_zstd::rawSeq", ptr %7, i32 0, i32 0
  %110 = load i32, ptr %109, align 4, !tbaa !90
  %111 = load ptr, ptr %4, align 8, !tbaa !28
  %112 = getelementptr inbounds nuw %"struct.duckdb_zstd::ZSTD_optLdm_t", ptr %111, i32 0, i32 3
  store i32 %110, ptr %112, align 8, !tbaa !58
  %113 = load ptr, ptr %4, align 8, !tbaa !28
  %114 = getelementptr inbounds nuw %"struct.duckdb_zstd::ZSTD_optLdm_t", ptr %113, i32 0, i32 2
  %115 = load i32, ptr %114, align 4, !tbaa !62
  %116 = load i32, ptr %8, align 4, !tbaa !21
  %117 = icmp ugt i32 %115, %116
  br i1 %117, label %118, label %128

118:                                              ; preds = %96
  %119 = load i32, ptr %8, align 4, !tbaa !21
  %120 = load ptr, ptr %4, align 8, !tbaa !28
  %121 = getelementptr inbounds nuw %"struct.duckdb_zstd::ZSTD_optLdm_t", ptr %120, i32 0, i32 2
  store i32 %119, ptr %121, align 4, !tbaa !62
  %122 = load ptr, ptr %4, align 8, !tbaa !28
  %123 = getelementptr inbounds nuw %"struct.duckdb_zstd::ZSTD_optLdm_t", ptr %122, i32 0, i32 0
  %124 = load i32, ptr %8, align 4, !tbaa !21
  %125 = load i32, ptr %5, align 4, !tbaa !21
  %126 = sub i32 %124, %125
  %127 = zext i32 %126 to i64
  call void @_ZN11duckdb_zstdL32ZSTD_optLdm_skipRawSeqStoreBytesEPNS_13rawSeqStore_tEm(ptr noundef %123, i64 noundef %127)
  br label %135

128:                                              ; preds = %96
  %129 = load ptr, ptr %4, align 8, !tbaa !28
  %130 = getelementptr inbounds nuw %"struct.duckdb_zstd::ZSTD_optLdm_t", ptr %129, i32 0, i32 0
  %131 = load i32, ptr %9, align 4, !tbaa !21
  %132 = load i32, ptr %10, align 4, !tbaa !21
  %133 = add i32 %131, %132
  %134 = zext i32 %133 to i64
  call void @_ZN11duckdb_zstdL32ZSTD_optLdm_skipRawSeqStoreBytesEPNS_13rawSeqStore_tEm(ptr noundef %130, i64 noundef %134)
  br label %135

135:                                              ; preds = %128, %118
  store i32 0, ptr %11, align 4
  br label %136

136:                                              ; preds = %135, %87, %27
  call void @llvm.lifetime.end.p0(i64 4, ptr %10) #13
  call void @llvm.lifetime.end.p0(i64 4, ptr %9) #13
  call void @llvm.lifetime.end.p0(i64 4, ptr %8) #13
  call void @llvm.lifetime.end.p0(i64 12, ptr %7) #13
  %137 = load i32, ptr %11, align 4
  switch i32 %137, label %139 [
    i32 0, label %138
    i32 1, label %138
  ]

138:                                              ; preds = %136, %136
  ret void

139:                                              ; preds = %136
  unreachable
}